; Function Attrs: mustprogress nofree norecurse nosync nounwind willreturn memory(argmem: readwrite) uwtable
define void @_ZN10duckdb_hll8sdsclearEPc(ptr noundef captures(none) initializes((0, 1)) %0) local_unnamed_addr #10 {
  %2 = getelementptr inbounds i8, ptr %0, i64 -1
  %3 = load i8, ptr %2, align 1, !tbaa !20
  %4 = and i8 %3, 7
  switch i8 %4, label %_ZN10duckdb_hllL9sdssetlenEPcm.exit [
    i8 0, label %5
    i8 1, label %6
    i8 2, label %8
    i8 3, label %10
    i8 4, label %12
  ]

5:                                                ; preds = %1
  store i8 0, ptr %2, align 1, !tbaa !20
  br label %_ZN10duckdb_hllL9sdssetlenEPcm.exit

6:                                                ; preds = %1
  %7 = getelementptr inbounds i8, ptr %0, i64 -4
  store i8 0, ptr %7, align 1, !tbaa !3
  br label %_ZN10duckdb_hllL9sdssetlenEPcm.exit

8:                                                ; preds = %1
  %9 = getelementptr inbounds i8, ptr %0, i64 -6
  store i16 0, ptr %9, align 1, !tbaa !8
  br label %_ZN10duckdb_hllL9sdssetlenEPcm.exit

10:                                               ; preds = %1
  %11 = getelementptr inbounds i8, ptr %0, i64 -10
  store i32 0, ptr %11, align 1, !tbaa !12
  br label %_ZN10duckdb_hllL9sdssetlenEPcm.exit

12:                                               ; preds = %1
  %13 = getelementptr inbounds i8, ptr %0, i64 -18
  store i64 0, ptr %13, align 1, !tbaa !16
  br label %_ZN10duckdb_hllL9sdssetlenEPcm.exit

_ZN10duckdb_hllL9sdssetlenEPcm.exit:              ; preds = %1, %5, %6, %8, %10, %12
  store i8 0, ptr %0, align 1, !tbaa !20
  ret void
}